
bin/heater.elf:     file format elf32-avr

Sections:
Idx Name          Size      VMA       LMA       File off  Algn
  0 .text         00000766  00000000  00000000  00000094  2**1
                  CONTENTS, ALLOC, LOAD, READONLY, CODE
  1 .data         00000002  00800060  00000766  000007fa  2**0
                  CONTENTS, ALLOC, LOAD, DATA
  2 .bss          00000004  00800062  00800062  000007fc  2**0
                  ALLOC
  3 .comment      00000030  00000000  00000000  000007fc  2**0
                  CONTENTS, READONLY
  4 .note.gnu.avr.deviceinfo 0000003c  00000000  00000000  0000082c  2**2
                  CONTENTS, READONLY
  5 .debug_info   00000420  00000000  00000000  00000868  2**0
                  CONTENTS, READONLY, DEBUGGING
  6 .debug_abbrev 000003e8  00000000  00000000  00000c88  2**0
                  CONTENTS, READONLY, DEBUGGING
  7 .debug_line   0000001a  00000000  00000000  00001070  2**0
                  CONTENTS, READONLY, DEBUGGING
  8 .debug_str    0000016a  00000000  00000000  0000108a  2**0
                  CONTENTS, READONLY, DEBUGGING

Disassembly of section .text:

00000000 <__vectors>:
   0:	13 c2       	rjmp	.+1062   	; 0x428 <__ctors_end>
   2:	2b c2       	rjmp	.+1110   	; 0x45a <__bad_interrupt>
   4:	b7 c2       	rjmp	.+1390   	; 0x574 <__vector_2>
   6:	29 c2       	rjmp	.+1106   	; 0x45a <__bad_interrupt>
   8:	28 c2       	rjmp	.+1104   	; 0x45a <__bad_interrupt>
   a:	90 c2       	rjmp	.+1312   	; 0x52c <__vector_5>
   c:	26 c2       	rjmp	.+1100   	; 0x45a <__bad_interrupt>
   e:	25 c2       	rjmp	.+1098   	; 0x45a <__bad_interrupt>
  10:	9f c2       	rjmp	.+1342   	; 0x550 <__vector_8>
  12:	23 c2       	rjmp	.+1094   	; 0x45a <__bad_interrupt>
  14:	22 c2       	rjmp	.+1092   	; 0x45a <__bad_interrupt>
  16:	21 c2       	rjmp	.+1090   	; 0x45a <__bad_interrupt>
  18:	20 c2       	rjmp	.+1088   	; 0x45a <__bad_interrupt>
  1a:	1f c2       	rjmp	.+1086   	; 0x45a <__bad_interrupt>
  1c:	1e c2       	rjmp	.+1084   	; 0x45a <__bad_interrupt>

0000001e <__trampolines_end>:
  1e:	7e 30       	cpi	r23, 0x0E	; 14
  20:	6d 79       	andi	r22, 0x9D	; 157
  22:	33 5b       	subi	r19, 0xB3	; 179
  24:	5f 70       	andi	r21, 0x0F	; 15
  26:	7f 7b       	andi	r23, 0xBF	; 191

00000028 <adc_temperature.1830>:
  28:	4b 13 4e 0d 43 0b 18 0a 4d 09 b5 08 3c 08 da 07     K.N.C...M...<...
  38:	87 07 3f 07 01 07 c9 06 97 06 6a 06 41 06 1b 06     ..?.......j.A...
  48:	f8 05 d8 05 b9 05 9d 05 82 05 69 05 52 05 3b 05     ..........i.R.;.
  58:	26 05 12 05 fe 04 ec 04 da 04 c9 04 b9 04 a9 04     &...............
  68:	9a 04 8b 04 7d 04 6f 04 62 04 55 04 49 04 3d 04     ....}.o.b.U.I.=.
  78:	31 04 26 04 1b 04 10 04 06 04 fc 03 f2 03 e8 03     1.&.............
  88:	df 03 d6 03 cc 03 c4 03 bb 03 b3 03 aa 03 a2 03     ................
  98:	9a 03 92 03 8b 03 83 03 7c 03 75 03 6e 03 67 03     ........|.u.n.g.
  a8:	60 03 59 03 53 03 4c 03 46 03 3f 03 39 03 33 03     `.Y.S.L.F.?.9.3.
  b8:	2d 03 27 03 21 03 1b 03 16 03 10 03 0b 03 05 03     -.'.!...........
  c8:	00 03 fb 02 f5 02 f0 02 eb 02 e6 02 e1 02 dc 02     ................
  d8:	d7 02 d2 02 ce 02 c9 02 c4 02 c0 02 bb 02 b7 02     ................
  e8:	b2 02 ae 02 a9 02 a5 02 a1 02 9d 02 98 02 94 02     ................
  f8:	90 02 8c 02 88 02 84 02 80 02 7c 02 78 02 75 02     ..........|.x.u.
 108:	71 02 6d 02 69 02 65 02 62 02 5e 02 5b 02 57 02     q.m.i.e.b.^.[.W.
 118:	53 02 50 02 4c 02 49 02 45 02 42 02 3f 02 3b 02     S.P.L.I.E.B.?.;.
 128:	38 02 34 02 31 02 2e 02 2b 02 27 02 24 02 21 02     8.4.1...+.'.$.!.
 138:	1e 02 1b 02 17 02 14 02 11 02 0e 02 0b 02 08 02     ................
 148:	05 02 02 02 ff 01 fc 01 f9 01 f6 01 f3 01 f0 01     ................
 158:	ed 01 eb 01 e8 01 e5 01 e2 01 df 01 dd 01 da 01     ................
 168:	d7 01 d4 01 d2 01 cf 01 cc 01 c9 01 c7 01 c4 01     ................
 178:	c1 01 bf 01 bc 01 b9 01 b7 01 b4 01 b2 01 af 01     ................
 188:	ad 01 aa 01 a7 01 a5 01 a2 01 a0 01 9d 01 9b 01     ................
 198:	98 01 96 01 94 01 91 01 8f 01 8c 01 8a 01 87 01     ................
 1a8:	85 01 83 01 80 01 7e 01 7b 01 79 01 77 01 74 01     ......~.{.y.w.t.
 1b8:	72 01 70 01 6d 01 6b 01 69 01 66 01 64 01 62 01     r.p.m.k.i.f.d.b.
 1c8:	60 01 5d 01 5b 01 59 01 57 01 54 01 52 01 50 01     `.].[.Y.W.T.R.P.
 1d8:	4e 01 4b 01 49 01 47 01 45 01 43 01 40 01 3e 01     N.K.I.G.E.C.@.>.
 1e8:	3c 01 3a 01 38 01 35 01 33 01 31 01 2f 01 2d 01     <.:.8.5.3.1./.-.
 1f8:	2b 01 29 01 26 01 24 01 22 01 20 01 1e 01 1c 01     +.).&.$.". .....
 208:	1a 01 18 01 16 01 13 01 11 01 0f 01 0d 01 0b 01     ................
 218:	09 01 07 01 05 01 03 01 01 01 ff 00 fd 00 fb 00     ................
 228:	f8 00 f6 00 f4 00 f2 00 f0 00 ee 00 ec 00 ea 00     ................
 238:	e8 00 e6 00 e4 00 e2 00 e0 00 de 00 dc 00 da 00     ................
 248:	d8 00 d6 00 d4 00 d2 00 d0 00 ce 00 cc 00 ca 00     ................
 258:	c8 00 c6 00 c4 00 c2 00 c0 00 be 00 bc 00 ba 00     ................
 268:	b8 00 b6 00 b4 00 b2 00 b0 00 ae 00 ac 00 aa 00     ................
 278:	a8 00 a6 00 a4 00 a2 00 a0 00 9e 00 9c 00 9a 00     ................
 288:	98 00 96 00 94 00 92 00 90 00 8e 00 8c 00 8a 00     ................
 298:	88 00 86 00 84 00 82 00 80 00 7e 00 7c 00 7a 00     ..........~.|.z.
 2a8:	78 00 76 00 74 00 72 00 70 00 6e 00 6c 00 6a 00     x.v.t.r.p.n.l.j.
 2b8:	68 00 66 00 64 00 62 00 60 00 5e 00 5c 00 5a 00     h.f.d.b.`.^.\.Z.
 2c8:	58 00 56 00 54 00 51 00 4f 00 4d 00 4b 00 49 00     X.V.T.Q.O.M.K.I.
 2d8:	47 00 45 00 43 00 41 00 3f 00 3d 00 3b 00 39 00     G.E.C.A.?.=.;.9.
 2e8:	37 00 34 00 32 00 30 00 2e 00 2c 00 2a 00 28 00     7.4.2.0...,.*.(.
 2f8:	26 00 24 00 21 00 1f 00 1d 00 1b 00 19 00 17 00     &.$.!...........
 308:	15 00 12 00 10 00 0e 00 0c 00 0a 00 07 00 05 00     ................
 318:	03 00 01 00 ff ff fd ff fb ff f9 ff f6 ff f4 ff     ................
 328:	f2 ff f0 ff ed ff eb ff e9 ff e6 ff e4 ff e2 ff     ................
 338:	df ff dd ff db ff d8 ff d6 ff d4 ff d1 ff cf ff     ................
 348:	cc ff ca ff c7 ff c5 ff c2 ff c0 ff bd ff bb ff     ................
 358:	b8 ff b6 ff b3 ff b1 ff ae ff ac ff a9 ff a6 ff     ................
 368:	a4 ff a1 ff 9e ff 9c ff 99 ff 96 ff 93 ff 91 ff     ................
 378:	8e ff 8b ff 88 ff 85 ff 83 ff 80 ff 7d ff 7a ff     ............}.z.
 388:	77 ff 74 ff 71 ff 6e ff 6b ff 68 ff 65 ff 62 ff     w.t.q.n.k.h.e.b.
 398:	5e ff 5b ff 58 ff 55 ff 51 ff 4e ff 4b ff 47 ff     ^.[.X.U.Q.N.K.G.
 3a8:	44 ff 41 ff 3d ff 39 ff 36 ff 32 ff 2f ff 2b ff     D.A.=.9.6.2./.+.
 3b8:	27 ff 23 ff 20 ff 1c ff 18 ff 14 ff 10 ff 0b ff     '.#. ...........
 3c8:	07 ff 03 ff ff fe fa fe f6 fe f1 fe ed fe e8 fe     ................
 3d8:	e3 fe de fe d9 fe d4 fe cf fe c9 fe c4 fe be fe     ................
 3e8:	b9 fe b3 fe ad fe a7 fe a0 fe 9a fe 93 fe 8c fe     ................
 3f8:	85 fe 7e fe 76 fe 6e fe 66 fe 5d fe 54 fe 4a fe     ..~.v.n.f.].T.J.
 408:	40 fe 36 fe 2b fe 1f fe 12 fe 04 fe f5 fd e5 fd     @.6.+...........
 418:	d3 fd bf fd a8 fd 8d fd 6d fd 43 fd 06 fd 8f fc     ........m.C.....

00000428 <__ctors_end>:
 428:	11 24       	eor	r1, r1
 42a:	1f be       	out	0x3f, r1	; 63
 42c:	cf ed       	ldi	r28, 0xDF	; 223
 42e:	cd bf       	out	0x3d, r28	; 61

00000430 <__do_copy_data>:
 430:	10 e0       	ldi	r17, 0x00	; 0
 432:	a0 e6       	ldi	r26, 0x60	; 96
 434:	b0 e0       	ldi	r27, 0x00	; 0
 436:	e6 e6       	ldi	r30, 0x66	; 102
 438:	f7 e0       	ldi	r31, 0x07	; 7
 43a:	02 c0       	rjmp	.+4      	; 0x440 <__do_copy_data+0x10>
 43c:	05 90       	lpm	r0, Z+
 43e:	0d 92       	st	X+, r0
 440:	a2 36       	cpi	r26, 0x62	; 98
 442:	b1 07       	cpc	r27, r17
 444:	d9 f7       	brne	.-10     	; 0x43c <__do_copy_data+0xc>

00000446 <__do_clear_bss>:
 446:	20 e0       	ldi	r18, 0x00	; 0
 448:	a2 e6       	ldi	r26, 0x62	; 98
 44a:	b0 e0       	ldi	r27, 0x00	; 0
 44c:	01 c0       	rjmp	.+2      	; 0x450 <.do_clear_bss_start>

0000044e <.do_clear_bss_loop>:
 44e:	1d 92       	st	X+, r1

00000450 <.do_clear_bss_start>:
 450:	a6 36       	cpi	r26, 0x66	; 102
 452:	b2 07       	cpc	r27, r18
 454:	e1 f7       	brne	.-8      	; 0x44e <.do_clear_bss_loop>
 456:	dc d0       	rcall	.+440    	; 0x610 <main>
 458:	84 c1       	rjmp	.+776    	; 0x762 <_exit>

0000045a <__bad_interrupt>:
 45a:	d2 cd       	rjmp	.-1116   	; 0x0 <__vectors>

0000045c <spi_send>:
 45c:	98 e0       	ldi	r25, 0x08	; 8
 45e:	87 ff       	sbrs	r24, 7
 460:	02 c0       	rjmp	.+4      	; 0x466 <spi_send+0xa>
 462:	c3 9a       	sbi	0x18, 3	; 24
 464:	01 c0       	rjmp	.+2      	; 0x468 <spi_send+0xc>
 466:	c3 98       	cbi	0x18, 3	; 24
 468:	c2 9a       	sbi	0x18, 2	; 24
 46a:	88 0f       	add	r24, r24
 46c:	c2 98       	cbi	0x18, 2	; 24
 46e:	91 50       	subi	r25, 0x01	; 1
 470:	b1 f7       	brne	.-20     	; 0x45e <spi_send+0x2>
 472:	08 95       	ret

00000474 <spi_max7219_send>:
 474:	cf 93       	push	r28
 476:	c8 2f       	mov	r28, r24
 478:	c4 98       	cbi	0x18, 4	; 24
 47a:	89 2f       	mov	r24, r25
 47c:	ef df       	rcall	.-34     	; 0x45c <spi_send>
 47e:	8c 2f       	mov	r24, r28
 480:	ed df       	rcall	.-38     	; 0x45c <spi_send>
 482:	c4 9a       	sbi	0x18, 4	; 24
 484:	cf 91       	pop	r28
 486:	08 95       	ret

00000488 <max7219_init>:
 488:	8c e1       	ldi	r24, 0x1C	; 28
 48a:	87 bb       	out	0x17, r24	; 23
 48c:	88 e1       	ldi	r24, 0x18	; 24
 48e:	88 bb       	out	0x18, r24	; 24
 490:	81 e0       	ldi	r24, 0x01	; 1
 492:	9c e0       	ldi	r25, 0x0C	; 12
 494:	ef df       	rcall	.-34     	; 0x474 <spi_max7219_send>
 496:	80 e0       	ldi	r24, 0x00	; 0
 498:	99 e0       	ldi	r25, 0x09	; 9
 49a:	ec df       	rcall	.-40     	; 0x474 <spi_max7219_send>
 49c:	80 e0       	ldi	r24, 0x00	; 0
 49e:	9f e0       	ldi	r25, 0x0F	; 15
 4a0:	e9 df       	rcall	.-46     	; 0x474 <spi_max7219_send>
 4a2:	83 e0       	ldi	r24, 0x03	; 3
 4a4:	9b e0       	ldi	r25, 0x0B	; 11
 4a6:	e6 df       	rcall	.-52     	; 0x474 <spi_max7219_send>
 4a8:	8f e0       	ldi	r24, 0x0F	; 15
 4aa:	9a e0       	ldi	r25, 0x0A	; 10
 4ac:	e3 df       	rcall	.-58     	; 0x474 <spi_max7219_send>
 4ae:	81 e0       	ldi	r24, 0x01	; 1
 4b0:	91 e0       	ldi	r25, 0x01	; 1
 4b2:	e0 df       	rcall	.-64     	; 0x474 <spi_max7219_send>
 4b4:	81 e0       	ldi	r24, 0x01	; 1
 4b6:	92 e0       	ldi	r25, 0x02	; 2
 4b8:	dd df       	rcall	.-70     	; 0x474 <spi_max7219_send>
 4ba:	81 e0       	ldi	r24, 0x01	; 1
 4bc:	93 e0       	ldi	r25, 0x03	; 3
 4be:	da df       	rcall	.-76     	; 0x474 <spi_max7219_send>
 4c0:	81 e0       	ldi	r24, 0x01	; 1
 4c2:	94 e0       	ldi	r25, 0x04	; 4
 4c4:	d7 cf       	rjmp	.-82     	; 0x474 <spi_max7219_send>

000004c6 <max7219_set_symbol>:
 4c6:	ff 92       	push	r15
 4c8:	0f 93       	push	r16
 4ca:	1f 93       	push	r17
 4cc:	cf 93       	push	r28
 4ce:	df 93       	push	r29
 4d0:	08 b3       	in	r16, 0x18	; 24
 4d2:	c8 2f       	mov	r28, r24
 4d4:	d0 e0       	ldi	r29, 0x00	; 0
 4d6:	1a e0       	ldi	r17, 0x0A	; 10
 4d8:	86 2f       	mov	r24, r22
 4da:	61 2f       	mov	r22, r17
 4dc:	0f d1       	rcall	.+542    	; 0x6fc <__udivmodqi4>
 4de:	f8 2e       	mov	r15, r24
 4e0:	e9 2f       	mov	r30, r25
 4e2:	f0 e0       	ldi	r31, 0x00	; 0
 4e4:	e2 5e       	subi	r30, 0xE2	; 226
 4e6:	ff 4f       	sbci	r31, 0xFF	; 255
 4e8:	e4 91       	lpm	r30, Z
 4ea:	c2 98       	cbi	0x18, 2	; 24
 4ec:	9e 01       	movw	r18, r28
 4ee:	2f 5f       	subi	r18, 0xFF	; 255
 4f0:	3f 4f       	sbci	r19, 0xFF	; 255
 4f2:	92 2f       	mov	r25, r18
 4f4:	88 27       	eor	r24, r24
 4f6:	8e 2b       	or	r24, r30
 4f8:	bd df       	rcall	.-134    	; 0x474 <spi_max7219_send>
 4fa:	8f 2d       	mov	r24, r15
 4fc:	61 2f       	mov	r22, r17
 4fe:	fe d0       	rcall	.+508    	; 0x6fc <__udivmodqi4>
 500:	e9 2f       	mov	r30, r25
 502:	f0 e0       	ldi	r31, 0x00	; 0
 504:	e2 5e       	subi	r30, 0xE2	; 226
 506:	ff 4f       	sbci	r31, 0xFF	; 255
 508:	e4 91       	lpm	r30, Z
 50a:	9c 2f       	mov	r25, r28
 50c:	88 27       	eor	r24, r24
 50e:	8e 2b       	or	r24, r30
 510:	b1 df       	rcall	.-158    	; 0x474 <spi_max7219_send>
 512:	08 bb       	out	0x18, r16	; 24
 514:	df 91       	pop	r29
 516:	cf 91       	pop	r28
 518:	1f 91       	pop	r17
 51a:	0f 91       	pop	r16
 51c:	ff 90       	pop	r15
 51e:	08 95       	ret

00000520 <max7219_turn_heater>:
 520:	81 30       	cpi	r24, 0x01	; 1
 522:	11 f4       	brne	.+4      	; 0x528 <max7219_turn_heater+0x8>
 524:	c2 9a       	sbi	0x18, 2	; 24
 526:	08 95       	ret
 528:	c2 98       	cbi	0x18, 2	; 24
 52a:	08 95       	ret

0000052c <__vector_5>:
 52c:	1f 92       	push	r1
 52e:	0f 92       	push	r0
 530:	0f b6       	in	r0, 0x3f	; 63
 532:	0f 92       	push	r0
 534:	11 24       	eor	r1, r1
 536:	8f 93       	push	r24
 538:	80 91 65 00 	lds	r24, 0x0065	; 0x800065 <SINTERRUPTS>
 53c:	88 60       	ori	r24, 0x08	; 8
 53e:	80 93 65 00 	sts	0x0065, r24	; 0x800065 <SINTERRUPTS>
 542:	00 00       	nop
 544:	8f 91       	pop	r24
 546:	0f 90       	pop	r0
 548:	0f be       	out	0x3f, r0	; 63
 54a:	0f 90       	pop	r0
 54c:	1f 90       	pop	r1
 54e:	18 95       	reti

00000550 <__vector_8>:
 550:	1f 92       	push	r1
 552:	0f 92       	push	r0
 554:	0f b6       	in	r0, 0x3f	; 63
 556:	0f 92       	push	r0
 558:	11 24       	eor	r1, r1
 55a:	8f 93       	push	r24
 55c:	80 91 65 00 	lds	r24, 0x0065	; 0x800065 <SINTERRUPTS>
 560:	82 60       	ori	r24, 0x02	; 2
 562:	80 93 65 00 	sts	0x0065, r24	; 0x800065 <SINTERRUPTS>
 566:	00 00       	nop
 568:	8f 91       	pop	r24
 56a:	0f 90       	pop	r0
 56c:	0f be       	out	0x3f, r0	; 63
 56e:	0f 90       	pop	r0
 570:	1f 90       	pop	r1
 572:	18 95       	reti

00000574 <__vector_2>:
 574:	1f 92       	push	r1
 576:	0f 92       	push	r0
 578:	0f b6       	in	r0, 0x3f	; 63
 57a:	0f 92       	push	r0
 57c:	11 24       	eor	r1, r1
 57e:	8f 93       	push	r24
 580:	8b b7       	in	r24, 0x3b	; 59
 582:	8f 7d       	andi	r24, 0xDF	; 223
 584:	8b bf       	out	0x3b, r24	; 59
 586:	00 00       	nop
 588:	b1 99       	sbic	0x16, 1	; 22
 58a:	05 c0       	rjmp	.+10     	; 0x596 <__vector_2+0x22>
 58c:	80 91 61 00 	lds	r24, 0x0061	; 0x800061 <DST_T>
 590:	8f 5f       	subi	r24, 0xFF	; 255
 592:	80 93 61 00 	sts	0x0061, r24	; 0x800061 <DST_T>
 596:	b0 99       	sbic	0x16, 0	; 22
 598:	05 c0       	rjmp	.+10     	; 0x5a4 <__vector_2+0x30>
 59a:	80 91 61 00 	lds	r24, 0x0061	; 0x800061 <DST_T>
 59e:	81 50       	subi	r24, 0x01	; 1
 5a0:	80 93 61 00 	sts	0x0061, r24	; 0x800061 <DST_T>
 5a4:	80 91 65 00 	lds	r24, 0x0065	; 0x800065 <SINTERRUPTS>
 5a8:	84 60       	ori	r24, 0x04	; 4
 5aa:	80 93 65 00 	sts	0x0065, r24	; 0x800065 <SINTERRUPTS>
 5ae:	8b b7       	in	r24, 0x3b	; 59
 5b0:	80 62       	ori	r24, 0x20	; 32
 5b2:	8b bf       	out	0x3b, r24	; 59
 5b4:	8f 91       	pop	r24
 5b6:	0f 90       	pop	r0
 5b8:	0f be       	out	0x3f, r0	; 63
 5ba:	0f 90       	pop	r0
 5bc:	1f 90       	pop	r1
 5be:	18 95       	reti

000005c0 <adcw_to_temperature>:
 5c0:	9c 01       	movw	r18, r24
 5c2:	36 95       	lsr	r19
 5c4:	27 95       	ror	r18
 5c6:	f9 01       	movw	r30, r18
 5c8:	ee 0f       	add	r30, r30
 5ca:	ff 1f       	adc	r31, r31
 5cc:	e8 5d       	subi	r30, 0xD8	; 216
 5ce:	ff 4f       	sbci	r31, 0xFF	; 255
 5d0:	65 91       	lpm	r22, Z+
 5d2:	74 91       	lpm	r23, Z
 5d4:	ab 01       	movw	r20, r22
 5d6:	f9 01       	movw	r30, r18
 5d8:	ee 0f       	add	r30, r30
 5da:	ff 1f       	adc	r31, r31
 5dc:	e6 5d       	subi	r30, 0xD6	; 214
 5de:	ff 4f       	sbci	r31, 0xFF	; 255
 5e0:	25 91       	lpm	r18, Z+
 5e2:	34 91       	lpm	r19, Z
 5e4:	80 ff       	sbrs	r24, 0
 5e6:	0e c0       	rjmp	.+28     	; 0x604 <adcw_to_temperature+0x44>
 5e8:	57 ff       	sbrs	r21, 7
 5ea:	02 c0       	rjmp	.+4      	; 0x5f0 <adcw_to_temperature+0x30>
 5ec:	4f 5f       	subi	r20, 0xFF	; 255
 5ee:	5f 4f       	sbci	r21, 0xFF	; 255
 5f0:	55 95       	asr	r21
 5f2:	47 95       	ror	r20
 5f4:	37 ff       	sbrs	r19, 7
 5f6:	02 c0       	rjmp	.+4      	; 0x5fc <adcw_to_temperature+0x3c>
 5f8:	2f 5f       	subi	r18, 0xFF	; 255
 5fa:	3f 4f       	sbci	r19, 0xFF	; 255
 5fc:	35 95       	asr	r19
 5fe:	27 95       	ror	r18
 600:	42 0f       	add	r20, r18
 602:	53 1f       	adc	r21, r19
 604:	ca 01       	movw	r24, r20
 606:	6a e0       	ldi	r22, 0x0A	; 10
 608:	70 e0       	ldi	r23, 0x00	; 0
 60a:	84 d0       	rcall	.+264    	; 0x714 <__divmodhi4>
 60c:	86 2f       	mov	r24, r22
 60e:	08 95       	ret

00000610 <main>:
 610:	84 e8       	ldi	r24, 0x84	; 132
 612:	86 b9       	out	0x06, r24	; 6
 614:	33 9a       	sbi	0x06, 3	; 6
 616:	38 df       	rcall	.-400    	; 0x488 <max7219_init>
 618:	60 91 61 00 	lds	r22, 0x0061	; 0x800061 <DST_T>
 61c:	83 e0       	ldi	r24, 0x03	; 3
 61e:	53 df       	rcall	.-346    	; 0x4c6 <max7219_set_symbol>
 620:	83 e0       	ldi	r24, 0x03	; 3
 622:	85 bb       	out	0x15, r24	; 21
 624:	8b b7       	in	r24, 0x3b	; 59
 626:	80 62       	ori	r24, 0x20	; 32
 628:	8b bf       	out	0x3b, r24	; 59
 62a:	85 e0       	ldi	r24, 0x05	; 5
 62c:	83 bf       	out	0x33, r24	; 51
 62e:	89 b7       	in	r24, 0x39	; 57
 630:	82 60       	ori	r24, 0x02	; 2
 632:	89 bf       	out	0x39, r24	; 57
 634:	78 94       	sei
 636:	36 9a       	sbi	0x06, 6	; 6
 638:	c3 e0       	ldi	r28, 0x03	; 3
 63a:	d1 e4       	ldi	r29, 0x41	; 65
 63c:	80 91 65 00 	lds	r24, 0x0065	; 0x800065 <SINTERRUPTS>
 640:	81 ff       	sbrs	r24, 1
 642:	32 c0       	rjmp	.+100    	; 0x6a8 <main+0x98>
 644:	80 91 65 00 	lds	r24, 0x0065	; 0x800065 <SINTERRUPTS>
 648:	8d 7f       	andi	r24, 0xFD	; 253
 64a:	80 93 65 00 	sts	0x0065, r24	; 0x800065 <SINTERRUPTS>
 64e:	90 91 60 00 	lds	r25, 0x0060	; 0x800060 <__data_start>
 652:	91 50       	subi	r25, 0x01	; 1
 654:	90 93 60 00 	sts	0x0060, r25	; 0x800060 <__data_start>
 658:	40 91 62 00 	lds	r20, 0x0062	; 0x800062 <__data_end>
 65c:	50 91 63 00 	lds	r21, 0x0063	; 0x800063 <__data_end+0x1>
 660:	99 23       	and	r25, r25
 662:	51 f0       	breq	.+20     	; 0x678 <main+0x68>
 664:	24 b1       	in	r18, 0x04	; 4
 666:	35 b1       	in	r19, 0x05	; 5
 668:	ca 01       	movw	r24, r20
 66a:	82 0f       	add	r24, r18
 66c:	93 1f       	adc	r25, r19
 66e:	90 93 63 00 	sts	0x0063, r25	; 0x800063 <__data_end+0x1>
 672:	80 93 62 00 	sts	0x0062, r24	; 0x800062 <__data_end>
 676:	0f c0       	rjmp	.+30     	; 0x696 <main+0x86>
 678:	d0 93 60 00 	sts	0x0060, r29	; 0x800060 <__data_start>
 67c:	ca 01       	movw	r24, r20
 67e:	26 e0       	ldi	r18, 0x06	; 6
 680:	96 95       	lsr	r25
 682:	87 95       	ror	r24
 684:	2a 95       	dec	r18
 686:	e1 f7       	brne	.-8      	; 0x680 <main+0x70>
 688:	9b df       	rcall	.-202    	; 0x5c0 <adcw_to_temperature>
 68a:	80 93 64 00 	sts	0x0064, r24	; 0x800064 <CUR_T>
 68e:	10 92 63 00 	sts	0x0063, r1	; 0x800063 <__data_end+0x1>
 692:	10 92 62 00 	sts	0x0062, r1	; 0x800062 <__data_end>
 696:	20 91 64 00 	lds	r18, 0x0064	; 0x800064 <CUR_T>
 69a:	90 91 61 00 	lds	r25, 0x0061	; 0x800061 <DST_T>
 69e:	81 e0       	ldi	r24, 0x01	; 1
 6a0:	29 17       	cp	r18, r25
 6a2:	08 f0       	brcs	.+2      	; 0x6a6 <main+0x96>
 6a4:	80 e0       	ldi	r24, 0x00	; 0
 6a6:	3c df       	rcall	.-392    	; 0x520 <max7219_turn_heater>
 6a8:	80 91 65 00 	lds	r24, 0x0065	; 0x800065 <SINTERRUPTS>
 6ac:	82 ff       	sbrs	r24, 2
 6ae:	12 c0       	rjmp	.+36     	; 0x6d4 <main+0xc4>
 6b0:	80 91 65 00 	lds	r24, 0x0065	; 0x800065 <SINTERRUPTS>
 6b4:	8b 7f       	andi	r24, 0xFB	; 251
 6b6:	80 93 65 00 	sts	0x0065, r24	; 0x800065 <SINTERRUPTS>
 6ba:	60 91 61 00 	lds	r22, 0x0061	; 0x800061 <DST_T>
 6be:	83 e0       	ldi	r24, 0x03	; 3
 6c0:	02 df       	rcall	.-508    	; 0x4c6 <max7219_set_symbol>
 6c2:	20 91 64 00 	lds	r18, 0x0064	; 0x800064 <CUR_T>
 6c6:	90 91 61 00 	lds	r25, 0x0061	; 0x800061 <DST_T>
 6ca:	81 e0       	ldi	r24, 0x01	; 1
 6cc:	29 17       	cp	r18, r25
 6ce:	08 f0       	brcs	.+2      	; 0x6d2 <main+0xc2>
 6d0:	80 e0       	ldi	r24, 0x00	; 0
 6d2:	26 df       	rcall	.-436    	; 0x520 <max7219_turn_heater>
 6d4:	80 91 65 00 	lds	r24, 0x0065	; 0x800065 <SINTERRUPTS>
 6d8:	83 ff       	sbrs	r24, 3
 6da:	0c c0       	rjmp	.+24     	; 0x6f4 <main+0xe4>
 6dc:	80 91 65 00 	lds	r24, 0x0065	; 0x800065 <SINTERRUPTS>
 6e0:	87 7f       	andi	r24, 0xF7	; 247
 6e2:	80 93 65 00 	sts	0x0065, r24	; 0x800065 <SINTERRUPTS>
 6e6:	c1 50       	subi	r28, 0x01	; 1
 6e8:	29 f4       	brne	.+10     	; 0x6f4 <main+0xe4>
 6ea:	60 91 64 00 	lds	r22, 0x0064	; 0x800064 <CUR_T>
 6ee:	81 e0       	ldi	r24, 0x01	; 1
 6f0:	ea de       	rcall	.-556    	; 0x4c6 <max7219_set_symbol>
 6f2:	c3 e0       	ldi	r28, 0x03	; 3
 6f4:	36 99       	sbic	0x06, 6	; 6
 6f6:	a2 cf       	rjmp	.-188    	; 0x63c <main+0x2c>
 6f8:	36 9a       	sbi	0x06, 6	; 6
 6fa:	a0 cf       	rjmp	.-192    	; 0x63c <main+0x2c>

000006fc <__udivmodqi4>:
 6fc:	99 1b       	sub	r25, r25
 6fe:	79 e0       	ldi	r23, 0x09	; 9
 700:	04 c0       	rjmp	.+8      	; 0x70a <__udivmodqi4_ep>

00000702 <__udivmodqi4_loop>:
 702:	99 1f       	adc	r25, r25
 704:	96 17       	cp	r25, r22
 706:	08 f0       	brcs	.+2      	; 0x70a <__udivmodqi4_ep>
 708:	96 1b       	sub	r25, r22

0000070a <__udivmodqi4_ep>:
 70a:	88 1f       	adc	r24, r24
 70c:	7a 95       	dec	r23
 70e:	c9 f7       	brne	.-14     	; 0x702 <__udivmodqi4_loop>
 710:	80 95       	com	r24
 712:	08 95       	ret

00000714 <__divmodhi4>:
 714:	97 fb       	bst	r25, 7
 716:	07 2e       	mov	r0, r23
 718:	16 f4       	brtc	.+4      	; 0x71e <__divmodhi4+0xa>
 71a:	00 94       	com	r0
 71c:	06 d0       	rcall	.+12     	; 0x72a <__divmodhi4_neg1>
 71e:	77 fd       	sbrc	r23, 7
 720:	08 d0       	rcall	.+16     	; 0x732 <__divmodhi4_neg2>
 722:	0b d0       	rcall	.+22     	; 0x73a <__udivmodhi4>
 724:	07 fc       	sbrc	r0, 7
 726:	05 d0       	rcall	.+10     	; 0x732 <__divmodhi4_neg2>
 728:	3e f4       	brtc	.+14     	; 0x738 <__divmodhi4_exit>

0000072a <__divmodhi4_neg1>:
 72a:	90 95       	com	r25
 72c:	81 95       	neg	r24
 72e:	9f 4f       	sbci	r25, 0xFF	; 255
 730:	08 95       	ret

00000732 <__divmodhi4_neg2>:
 732:	70 95       	com	r23
 734:	61 95       	neg	r22
 736:	7f 4f       	sbci	r23, 0xFF	; 255

00000738 <__divmodhi4_exit>:
 738:	08 95       	ret

0000073a <__udivmodhi4>:
 73a:	aa 1b       	sub	r26, r26
 73c:	bb 1b       	sub	r27, r27
 73e:	51 e1       	ldi	r21, 0x11	; 17
 740:	07 c0       	rjmp	.+14     	; 0x750 <__udivmodhi4_ep>

00000742 <__udivmodhi4_loop>:
 742:	aa 1f       	adc	r26, r26
 744:	bb 1f       	adc	r27, r27
 746:	a6 17       	cp	r26, r22
 748:	b7 07       	cpc	r27, r23
 74a:	10 f0       	brcs	.+4      	; 0x750 <__udivmodhi4_ep>
 74c:	a6 1b       	sub	r26, r22
 74e:	b7 0b       	sbc	r27, r23

00000750 <__udivmodhi4_ep>:
 750:	88 1f       	adc	r24, r24
 752:	99 1f       	adc	r25, r25
 754:	5a 95       	dec	r21
 756:	a9 f7       	brne	.-22     	; 0x742 <__udivmodhi4_loop>
 758:	80 95       	com	r24
 75a:	90 95       	com	r25
 75c:	bc 01       	movw	r22, r24
 75e:	cd 01       	movw	r24, r26
 760:	08 95       	ret

00000762 <_exit>:
 762:	f8 94       	cli

00000764 <__stop_program>:
 764:	ff cf       	rjmp	.-2      	; 0x764 <__stop_program>
